target datalayout = "e-m:e-p270:32:32-p271:32:32-p272:64:64-i64:64-i128:128-f80:128-n8:16:32:64-S128"
target triple = "x86_64-pc-linux-gnu"

%struct._YR_COMPILER = type { i32, i32, i32, i32, i32, [1 x %struct.__jmp_buf_tag], ptr, ptr, ptr, ptr, ptr, ptr, ptr, ptr, ptr, ptr, ptr, ptr, ptr, ptr, i32, i32, [4 x ptr], [4 x ptr], i32, i32, i32, [16 x ptr], i32, [16 x ptr], i32, [256 x i8], [1024 x i8], ptr, i16, [1024 x i8], ptr, %struct.rq, %struct.cs, ptr, i32 }
%struct.__jmp_buf_tag = type { [8 x i64], i32, %struct.__sigset_t }
%struct.__sigset_t = type { [16 x i64] }
%struct.rq = type { ptr, ptr }
%struct.cs = type { ptr, ptr }
%struct._YR_OBJECT_FUNCTION = type { i8, ptr, ptr, ptr, ptr, ptr, ptr }

@.str = private unnamed_addr constant [35 x i8] c"wrong number of arguments for \22%s\22\00", align 1
@.str.1 = private unnamed_addr constant [35 x i8] c"wrong type for argument %i of \22%s\22\00", align 1

; Function Attrs: nounwind uwtable
define i32 @yr_parser_check_types(ptr noundef %0, ptr noundef %1, ptr noundef %2) #0 {
  %4 = alloca ptr, align 8
  %5 = alloca ptr, align 8
  %6 = alloca ptr, align 8
  %7 = alloca i32, align 4
  %8 = alloca [256 x i8], align 16
  %9 = alloca ptr, align 8
  %10 = alloca ptr, align 8
  store ptr %0, ptr %4, align 8, !tbaa !28
  store ptr %1, ptr %5, align 8, !tbaa !37
  store ptr %2, ptr %6, align 8, !tbaa !27
  call void @llvm.lifetime.start.p0(i64 4, ptr %7) #5
  call void @llvm.lifetime.start.p0(i64 256, ptr %8) #5
  call void @llvm.lifetime.start.p0(i64 8, ptr %9) #5
  %11 = load ptr, ptr %5, align 8, !tbaa !37
  %12 = getelementptr inbounds nuw %struct._YR_OBJECT_FUNCTION, ptr %11, i32 0, i32 4
  %13 = load ptr, ptr %12, align 8, !tbaa !39
  store ptr %13, ptr %9, align 8, !tbaa !27
  call void @llvm.lifetime.start.p0(i64 8, ptr %10) #5
  %14 = load ptr, ptr %6, align 8, !tbaa !27
  store ptr %14, ptr %10, align 8, !tbaa !27
  store i32 0, ptr %7, align 4, !tbaa !26
  br label %15

15:                                               ; preds = %70, %3
  %16 = load ptr, ptr %9, align 8, !tbaa !27
  %17 = load i8, ptr %16, align 1, !tbaa !7
  %18 = sext i8 %17 to i32
  %19 = icmp ne i32 %18, 0
  br i1 %19, label %25, label %20

20:                                               ; preds = %15
  %21 = load ptr, ptr %10, align 8, !tbaa !27
  %22 = load i8, ptr %21, align 1, !tbaa !7
  %23 = sext i8 %22 to i32
  %24 = icmp ne i32 %23, 0
  br label %25

25:                                               ; preds = %20, %15
  %26 = phi i1 [ true, %15 ], [ %24, %20 ]
  br i1 %26, label %27, label %75

27:                                               ; preds = %25
  %28 = load i32, ptr %7, align 4, !tbaa !26
  %29 = add nsw i32 %28, 1
  store i32 %29, ptr %7, align 4, !tbaa !26
  %30 = load ptr, ptr %9, align 8, !tbaa !27
  %31 = load i8, ptr %30, align 1, !tbaa !7
  %32 = sext i8 %31 to i32
  %33 = load ptr, ptr %10, align 8, !tbaa !27
  %34 = load i8, ptr %33, align 1, !tbaa !7
  %35 = sext i8 %34 to i32
  %36 = icmp ne i32 %32, %35
  br i1 %36, label %37, label %70

37:                                               ; preds = %27
  %38 = load ptr, ptr %9, align 8, !tbaa !27
  %39 = load i8, ptr %38, align 1, !tbaa !7
  %40 = sext i8 %39 to i32
  %41 = icmp eq i32 %40, 0
  br i1 %41, label %47, label %42

42:                                               ; preds = %37
  %43 = load ptr, ptr %10, align 8, !tbaa !27
  %44 = load i8, ptr %43, align 1, !tbaa !7
  %45 = sext i8 %44 to i32
  %46 = icmp eq i32 %45, 0
  br i1 %46, label %47, label %55

47:                                               ; preds = %42, %37
  %48 = getelementptr inbounds [256 x i8], ptr %8, i64 0, i64 0
  %49 = load ptr, ptr %5, align 8, !tbaa !37
  %50 = getelementptr inbounds nuw %struct._YR_OBJECT_FUNCTION, ptr %49, i32 0, i32 1
  %51 = load ptr, ptr %50, align 8, !tbaa !42
  %52 = call i32 (ptr, i64, ptr, ...) @snprintf(ptr noundef %48, i64 noundef 256, ptr noundef @.str, ptr noundef %51) #5
  %53 = load ptr, ptr %4, align 8, !tbaa !28
  %54 = getelementptr inbounds nuw %struct._YR_COMPILER, ptr %53, i32 0, i32 4
  store i32 40, ptr %54, align 8, !tbaa !36
  br label %64

55:                                               ; preds = %42
  %56 = getelementptr inbounds [256 x i8], ptr %8, i64 0, i64 0
  %57 = load i32, ptr %7, align 4, !tbaa !26
  %58 = load ptr, ptr %5, align 8, !tbaa !37
  %59 = getelementptr inbounds nuw %struct._YR_OBJECT_FUNCTION, ptr %58, i32 0, i32 1
  %60 = load ptr, ptr %59, align 8, !tbaa !42
  %61 = call i32 (ptr, i64, ptr, ...) @snprintf(ptr noundef %56, i64 noundef 256, ptr noundef @.str.1, i32 noundef %57, ptr noundef %60) #5
  %62 = load ptr, ptr %4, align 8, !tbaa !28
  %63 = getelementptr inbounds nuw %struct._YR_COMPILER, ptr %62, i32 0, i32 4
  store i32 24, ptr %63, align 8, !tbaa !36
  br label %64

64:                                               ; preds = %55, %47
  %65 = load ptr, ptr %4, align 8, !tbaa !28
  %66 = getelementptr inbounds nuw %struct._YR_COMPILER, ptr %65, i32 0, i32 31
  %67 = getelementptr inbounds [256 x i8], ptr %66, i64 0, i64 0
  %68 = getelementptr inbounds [256 x i8], ptr %8, i64 0, i64 0
  %69 = call i64 @cli_strlcpy(ptr noundef %67, ptr noundef %68, i64 noundef 256)
  br label %75

70:                                               ; preds = %27
  %71 = load ptr, ptr %9, align 8, !tbaa !27
  %72 = getelementptr inbounds nuw i8, ptr %71, i32 1
  store ptr %72, ptr %9, align 8, !tbaa !27
  %73 = load ptr, ptr %10, align 8, !tbaa !27
  %74 = getelementptr inbounds nuw i8, ptr %73, i32 1
  store ptr %74, ptr %10, align 8, !tbaa !27
  br label %15

75:                                               ; preds = %64, %25
  %76 = load ptr, ptr %4, align 8, !tbaa !28
  %77 = getelementptr inbounds nuw %struct._YR_COMPILER, ptr %76, i32 0, i32 4
  %78 = load i32, ptr %77, align 8, !tbaa !36
  call void @llvm.lifetime.end.p0(i64 8, ptr %10) #5
  call void @llvm.lifetime.end.p0(i64 8, ptr %9) #5
  call void @llvm.lifetime.end.p0(i64 256, ptr %8) #5
  call void @llvm.lifetime.end.p0(i64 4, ptr %7) #5
  ret i32 %78
}