; Function Attrs: nounwind uwtable
define i32 @yr_parser_check_types(ptr noundef %0, ptr noundef readonly captures(none) %1, ptr noundef readonly captures(none) %2) local_unnamed_addr #0 {
  %4 = alloca [256 x i8], align 16
  call void @llvm.lifetime.start.p0(i64 256, ptr nonnull %4) #6
  %5 = getelementptr inbounds nuw i8, ptr %1, i64 32
  %6 = load ptr, ptr %5, align 8, !tbaa !30
  %7 = load i8, ptr %6, align 1, !tbaa !3
  %.not32 = icmp eq i8 %7, 0
  %.pre33 = load i8, ptr %2, align 1, !tbaa !3
  %.not2134 = icmp eq i8 %.pre33, 0
  %or.cond2935 = select i1 %.not32, i1 %.not2134, i1 false
  br i1 %or.cond2935, label %.loopexit, label %.critedge

.critedge:                                        ; preds = %3, %22
  %.pre40 = phi i8 [ %.pre, %22 ], [ %.pre33, %3 ]
  %.not39 = phi i1 [ %.not, %22 ], [ %.not32, %3 ]
  %8 = phi i8 [ %25, %22 ], [ %7, %3 ]
  %.038 = phi ptr [ %24, %22 ], [ %2, %3 ]
  %.01737 = phi ptr [ %23, %22 ], [ %6, %3 ]
  %.01836 = phi i32 [ %9, %22 ], [ 0, %3 ]
  %9 = add nuw nsw i32 %.01836, 1
  %.not22 = icmp eq i8 %8, %.pre40
  br i1 %.not22, label %22, label %10

10:                                               ; preds = %.critedge
  %11 = icmp eq i8 %.pre40, 0
  %or.cond = or i1 %.not39, %11
  %12 = getelementptr inbounds nuw i8, ptr %1, i64 8
  %13 = load ptr, ptr %12, align 8, !tbaa !33
  br i1 %or.cond, label %14, label %16

14:                                               ; preds = %10
  %15 = call i32 (ptr, i64, ptr, ...) @snprintf(ptr noundef nonnull dereferenceable(1) %4, i64 noundef 256, ptr noundef nonnull @.str, ptr noundef %13) #6
  br label %18

16:                                               ; preds = %10
  %17 = call i32 (ptr, i64, ptr, ...) @snprintf(ptr noundef nonnull dereferenceable(1) %4, i64 noundef 256, ptr noundef nonnull @.str.1, i32 noundef %9, ptr noundef %13) #6
  br label %18

18:                                               ; preds = %16, %14
  %.sink = phi i32 [ 40, %14 ], [ 24, %16 ]
  %19 = getelementptr inbounds nuw i8, ptr %0, i64 16
  store i32 %.sink, ptr %19, align 8, !tbaa !29
  %20 = getelementptr inbounds nuw i8, ptr %0, i64 692
  %21 = call i64 @cli_strlcpy(ptr noundef nonnull %20, ptr noundef nonnull %4, i64 noundef 256) #6
  br label %.loopexit

22:                                               ; preds = %.critedge
  %23 = getelementptr inbounds nuw i8, ptr %.01737, i64 1
  %24 = getelementptr inbounds nuw i8, ptr %.038, i64 1
  %25 = load i8, ptr %23, align 1, !tbaa !3
  %.not = icmp eq i8 %25, 0
  %.pre = load i8, ptr %24, align 1, !tbaa !3
  %.not21 = icmp eq i8 %.pre, 0
  %or.cond29 = select i1 %.not, i1 %.not21, i1 false
  br i1 %or.cond29, label %.loopexit, label %.critedge

.loopexit:                                        ; preds = %22, %3, %18
  %26 = getelementptr inbounds nuw i8, ptr %0, i64 16
  %27 = load i32, ptr %26, align 8, !tbaa !29
  call void @llvm.lifetime.end.p0(i64 256, ptr nonnull %4) #6
  ret i32 %27
}